; Function Attrs: mustprogress nofree norecurse nosync nounwind willreturn memory(argmem: read) uwtable
define i32 @aiVector3AreEqual(ptr nocapture noundef readonly %a, ptr nocapture noundef readonly %b) local_unnamed_addr #15 {
entry:
  %0 = load float, ptr %a, align 4
  %1 = load float, ptr %b, align 4
  %cmp.i = fcmp oeq float %0, %1
  br i1 %cmp.i, label %land.lhs.true.i, label %_ZNK10aiVector3tIfEeqERKS0_.exit

land.lhs.true.i:                                  ; preds = %entry
  %y.i = getelementptr inbounds i8, ptr %a, i64 4
  %2 = load float, ptr %y.i, align 4
  %y3.i = getelementptr inbounds i8, ptr %b, i64 4
  %3 = load float, ptr %y3.i, align 4
  %cmp4.i = fcmp oeq float %2, %3
  br i1 %cmp4.i, label %land.rhs.i, label %_ZNK10aiVector3tIfEeqERKS0_.exit

land.rhs.i:                                       ; preds = %land.lhs.true.i
  %z.i = getelementptr inbounds i8, ptr %a, i64 8
  %4 = load float, ptr %z.i, align 4
  %z5.i = getelementptr inbounds i8, ptr %b, i64 8
  %5 = load float, ptr %z5.i, align 4
  %cmp6.i = fcmp oeq float %4, %5
  %6 = zext i1 %cmp6.i to i32
  br label %_ZNK10aiVector3tIfEeqERKS0_.exit

_ZNK10aiVector3tIfEeqERKS0_.exit:                 ; preds = %entry, %land.lhs.true.i, %land.rhs.i
  %conv = phi i32 [ 0, %land.lhs.true.i ], [ 0, %entry ], [ %6, %land.rhs.i ]
  ret i32 %conv
}